; Function Attrs: mustprogress nounwind uwtable
define dso_local noundef zeroext i1 @_ZN4llvm11MCAsmParser8parseEOLERKNS_5TwineE(ptr noundef nonnull align 8 dereferenceable(34) %0, ptr noundef nonnull align 8 dereferenceable(34) %1) local_unnamed_addr #0 align 2 {
  %3 = load ptr, ptr %0, align 8
  %4 = getelementptr inbounds i8, ptr %3, i64 40
  %5 = load ptr, ptr %4, align 8
  %6 = tail call noundef nonnull align 8 dereferenceable(144) ptr %5(ptr noundef nonnull align 8 dereferenceable(34) %0) #13
  %7 = getelementptr inbounds nuw i8, ptr %6, i64 8
  %8 = load ptr, ptr %7, align 8
  %9 = load i32, ptr %8, align 8
  %.not = icmp ne i32 %9, 9
  %10 = load ptr, ptr %0, align 8
  br i1 %.not, label %11, label %19

11:                                               ; preds = %2
  %12 = getelementptr inbounds i8, ptr %10, i64 40
  %13 = load ptr, ptr %12, align 8
  %14 = tail call noundef nonnull align 8 dereferenceable(144) ptr %13(ptr noundef nonnull align 8 dereferenceable(34) %0) #13
  %15 = getelementptr inbounds nuw i8, ptr %14, i64 8
  %16 = load ptr, ptr %15, align 8
  %17 = tail call ptr @_ZNK4llvm8AsmToken6getLocEv(ptr noundef nonnull align 8 dereferenceable(40) %16) #13
  %18 = tail call noundef zeroext i1 @_ZN4llvm11MCAsmParser5ErrorENS_5SMLocERKNS_5TwineENS_7SMRangeE(ptr noundef nonnull align 8 dereferenceable(34) %0, ptr %17, ptr noundef nonnull align 8 dereferenceable(34) %1, ptr null, ptr null)
  br label %23

19:                                               ; preds = %2
  %20 = getelementptr inbounds i8, ptr %10, i64 184
  %21 = load ptr, ptr %20, align 8
  %22 = tail call noundef nonnull align 8 dereferenceable(40) ptr %21(ptr noundef nonnull align 8 dereferenceable(34) %0) #13
  br label %23

23:                                               ; preds = %19, %11
  ret i1 %.not
}